; Function Attrs: nounwind uwtable
define ptr @l_Lake_RBArray_any___rarg___boxed(ptr noundef %0, ptr noundef %1) #0 {
  %3 = getelementptr inbounds nuw i8, ptr %1, i64 16
  %4 = load ptr, ptr %3, align 8, !tbaa !4
  %5 = getelementptr i8, ptr %4, i64 8
  %.val.i = load i64, ptr %5, align 8, !tbaa !14
  %.mask.i = and i64 %.val.i, 9223372036854775807
  %.not.i4 = icmp eq i64 %.mask.i, 0
  br i1 %.not.i4, label %lean_dec.exit16.i, label %lean_dec.exit.i

lean_dec.exit16.i:                                ; preds = %2
  %6 = ptrtoint ptr %0 to i64
  %7 = and i64 %6, 1
  %.not22.i = icmp eq i64 %7, 0
  br i1 %.not22.i, label %8, label %l_Lake_RBArray_any___rarg.exit

8:                                                ; preds = %lean_dec.exit16.i
  %9 = load i32, ptr %0, align 4, !tbaa !8
  %10 = icmp sgt i32 %9, 1
  br i1 %10, label %11, label %13, !prof !13

11:                                               ; preds = %8
  %12 = add nsw i32 %9, -1
  store i32 %12, ptr %0, align 4, !tbaa !8
  br label %l_Lake_RBArray_any___rarg.exit

13:                                               ; preds = %8
  %.not.i17.i = icmp eq i32 %9, 0
  br i1 %.not.i17.i, label %l_Lake_RBArray_any___rarg.exit, label %14

14:                                               ; preds = %13
  tail call void @lean_dec_ref_cold(ptr noundef nonnull %0) #4
  br label %l_Lake_RBArray_any___rarg.exit

lean_dec.exit.i:                                  ; preds = %2
  %15 = tail call zeroext i8 @l_Array_anyMUnsafe_any___at_Lake_RBArray_any___spec__1___rarg(ptr noundef %0, ptr noundef nonnull %4, i64 noundef 0, i64 noundef %.mask.i)
  %16 = shl nuw nsw i8 %15, 1
  %17 = or disjoint i8 %16, 1
  %18 = zext nneg i8 %17 to i64
  br label %l_Lake_RBArray_any___rarg.exit

l_Lake_RBArray_any___rarg.exit:                   ; preds = %lean_dec.exit16.i, %11, %13, %14, %lean_dec.exit.i
  %.0.i = phi i64 [ %18, %lean_dec.exit.i ], [ 1, %14 ], [ 1, %13 ], [ 1, %11 ], [ 1, %lean_dec.exit16.i ]
  %19 = ptrtoint ptr %1 to i64
  %20 = and i64 %19, 1
  %.not = icmp eq i64 %20, 0
  br i1 %.not, label %21, label %lean_dec.exit

21:                                               ; preds = %l_Lake_RBArray_any___rarg.exit
  %22 = load i32, ptr %1, align 4, !tbaa !8
  %23 = icmp sgt i32 %22, 1
  br i1 %23, label %24, label %26, !prof !13

24:                                               ; preds = %21
  %25 = add nsw i32 %22, -1
  store i32 %25, ptr %1, align 4, !tbaa !8
  br label %lean_dec.exit

26:                                               ; preds = %21
  %.not.i = icmp eq i32 %22, 0
  br i1 %.not.i, label %lean_dec.exit, label %27

27:                                               ; preds = %26
  tail call void @lean_dec_ref_cold(ptr noundef nonnull %1) #4
  br label %lean_dec.exit

lean_dec.exit:                                    ; preds = %27, %26, %24, %l_Lake_RBArray_any___rarg.exit
  %28 = inttoptr i64 %.0.i to ptr
  ret ptr %28
}